; Function Attrs: mustprogress nounwind uwtable
define internal void @_ZNK12_GLOBAL__N_121ParsedAttrInfoPointer28getPragmaAttributeMatchRulesERN4llvm15SmallVectorImplISt4pairIN5clang4attr16SubjectMatchRuleEbEEERKNS4_11LangOptionsE(ptr nocapture nonnull readnone align 8 %0, ptr noundef nonnull align 8 dereferenceable(16) %1, ptr nocapture nonnull readnone align 8 %2) unnamed_addr #0 align 2 {
  %4 = tail call noundef i64 @_ZNK4llvm15SmallVectorBaseIjE4sizeEv(ptr noundef nonnull align 8 dereferenceable(16) %1) #18
  %5 = add i64 %4, 1
  %6 = tail call noundef i64 @_ZNK4llvm15SmallVectorBaseIjE8capacityEv(ptr noundef nonnull align 8 dereferenceable(16) %1) #18
  %.not.i.i.i = icmp ugt i64 %5, %6
  br i1 %.not.i.i.i, label %7, label %_ZN4llvm23SmallVectorTemplateBaseISt4pairIN5clang4attr16SubjectMatchRuleEbELb1EE9push_backES5_.exit

7:                                                ; preds = %3
  %8 = getelementptr inbounds i8, ptr %1, i64 16
  tail call void @_ZN4llvm15SmallVectorBaseIjE8grow_podEPvmm(ptr noundef nonnull align 8 dereferenceable(16) %1, ptr noundef nonnull %8, i64 noundef %5, i64 noundef 8) #18
  br label %_ZN4llvm23SmallVectorTemplateBaseISt4pairIN5clang4attr16SubjectMatchRuleEbELb1EE9push_backES5_.exit

_ZN4llvm23SmallVectorTemplateBaseISt4pairIN5clang4attr16SubjectMatchRuleEbELb1EE9push_backES5_.exit: ; preds = %3, %7
  %9 = load ptr, ptr %1, align 8
  %10 = tail call noundef i64 @_ZNK4llvm15SmallVectorBaseIjE4sizeEv(ptr noundef nonnull align 8 dereferenceable(16) %1) #18
  %11 = getelementptr inbounds %"struct.std::pair.1127", ptr %9, i64 %10
  store i64 4294967311, ptr %11, align 1
  %12 = tail call noundef i64 @_ZNK4llvm15SmallVectorBaseIjE4sizeEv(ptr noundef nonnull align 8 dereferenceable(16) %1) #18
  %13 = add i64 %12, 1
  tail call void @_ZN4llvm15SmallVectorBaseIjE8set_sizeEm(ptr noundef nonnull align 8 dereferenceable(16) %1, i64 noundef %13) #18
  ret void
}